target datalayout = "e-m:e-p270:32:32-p271:32:32-p272:64:64-i64:64-i128:128-f80:128-n8:16:32:64-S128"
target triple = "x86_64-pc-linux-gnu"

; Function Attrs: nounwind uwtable
define void @Extra_ReorderArray(ptr noundef %0, ptr noundef %1, ptr noundef %2, ptr noundef %3, i32 noundef %4, ptr noundef %5) #0 {
  %7 = alloca ptr, align 8
  %8 = alloca ptr, align 8
  %9 = alloca ptr, align 8
  %10 = alloca ptr, align 8
  %11 = alloca i32, align 4
  %12 = alloca ptr, align 8
  store ptr %0, ptr %7, align 8, !tbaa !7
  store ptr %1, ptr %8, align 8, !tbaa !39
  store ptr %2, ptr %9, align 8, !tbaa !43
  store ptr %3, ptr %10, align 8, !tbaa !43
  store i32 %4, ptr %11, align 4, !tbaa !3
  store ptr %5, ptr %12, align 8, !tbaa !42
  %13 = load ptr, ptr %7, align 8, !tbaa !7
  %14 = load ptr, ptr %8, align 8, !tbaa !39
  %15 = load ptr, ptr %9, align 8, !tbaa !43
  %16 = load ptr, ptr %10, align 8, !tbaa !43
  %17 = load i32, ptr %11, align 4, !tbaa !3
  %18 = load ptr, ptr %12, align 8, !tbaa !42
  call void @reoReorderArray(ptr noundef %13, ptr noundef %14, ptr noundef %15, ptr noundef %16, i32 noundef %17, ptr noundef %18)
  ret void
}

; Function Attrs: nounwind uwtable
define ptr @Extra_Reorder(ptr noundef %0, ptr noundef %1, ptr noundef %2, ptr noundef %3) #0 {
  %5 = alloca ptr, align 8
  %6 = alloca ptr, align 8
  %7 = alloca ptr, align 8
  %8 = alloca ptr, align 8
  %9 = alloca ptr, align 8
  store ptr %0, ptr %5, align 8, !tbaa !7
  store ptr %1, ptr %6, align 8, !tbaa !39
  store ptr %2, ptr %7, align 8, !tbaa !40
  store ptr %3, ptr %8, align 8, !tbaa !42
  call void @llvm.lifetime.start.p0(i64 8, ptr %9) #6
  %10 = load ptr, ptr %5, align 8, !tbaa !7
  %11 = load ptr, ptr %6, align 8, !tbaa !39
  %12 = load ptr, ptr %8, align 8, !tbaa !42
  call void @Extra_ReorderArray(ptr noundef %10, ptr noundef %11, ptr noundef %7, ptr noundef %9, i32 noundef 1, ptr noundef %12)
  %13 = load ptr, ptr %9, align 8, !tbaa !40
  call void @Cudd_Deref(ptr noundef %13)
  %14 = load ptr, ptr %9, align 8, !tbaa !40
  call void @llvm.lifetime.end.p0(i64 8, ptr %9) #6
  ret ptr %14
}