; Function Attrs: nounwind uwtable
define ptr @Extra_Reorder(ptr noundef %0, ptr noundef %1, ptr noundef %2, ptr noundef %3) local_unnamed_addr #0 {
  %5 = alloca ptr, align 8
  %6 = alloca ptr, align 8
  store ptr %2, ptr %5, align 8, !tbaa !36
  call void @llvm.lifetime.start.p0(i64 8, ptr nonnull %6) #7
  call void @reoReorderArray(ptr noundef %0, ptr noundef %1, ptr noundef nonnull %5, ptr noundef nonnull %6, i32 noundef 1, ptr noundef %3) #7
  %7 = load ptr, ptr %6, align 8, !tbaa !36
  call void @Cudd_Deref(ptr noundef %7) #7
  %8 = load ptr, ptr %6, align 8, !tbaa !36
  call void @llvm.lifetime.end.p0(i64 8, ptr nonnull %6) #7
  ret ptr %8
}